; Function Attrs: mustprogress uwtable
define hidden noundef nonnull align 8 dereferenceable(8) ptr @_ZNK5nlsat6solver7displayERSoRKNS_4atomE(ptr nocapture noundef nonnull readonly align 8 dereferenceable(16) %this, ptr noundef nonnull align 8 dereferenceable(8) %out, ptr noundef nonnull align 4 dereferenceable(16) %a) local_unnamed_addr #4 align 2 {
entry:
  %0 = load ptr, ptr %this, align 8
  %m_display_var = getelementptr inbounds i8, ptr %0, i64 472
  %1 = load i32, ptr %a, align 4
  %cmp.i.i = icmp slt i32 %1, 3
  br i1 %cmp.i.i, label %if.then.i, label %if.else.i

if.then.i:                                        ; preds = %entry
  %call2.i = tail call noundef nonnull align 8 dereferenceable(8) ptr @_ZNK5nlsat6solver3imp7displayERSoRKNS_9ineq_atomERKN10polynomial16display_var_procEb(ptr noundef nonnull align 8 dereferenceable(728) %0, ptr noundef nonnull align 8 dereferenceable(8) %out, ptr noundef nonnull align 8 dereferenceable(24) %a, ptr noundef nonnull align 8 dereferenceable(8) %m_display_var, i1 noundef zeroext false)
  br label %_ZNK5nlsat6solver3imp7displayERSoRKNS_4atomERKN10polynomial16display_var_procE.exit

if.else.i:                                        ; preds = %entry
  %call3.i = tail call noundef nonnull align 8 dereferenceable(8) ptr @_ZNK5nlsat6solver3imp7displayERSoRKNS_9root_atomERKN10polynomial16display_var_procE(ptr noundef nonnull align 8 dereferenceable(728) %0, ptr noundef nonnull align 8 dereferenceable(8) %out, ptr noundef nonnull align 8 dereferenceable(32) %a, ptr noundef nonnull align 8 dereferenceable(8) %m_display_var)
  br label %_ZNK5nlsat6solver3imp7displayERSoRKNS_4atomERKN10polynomial16display_var_procE.exit

_ZNK5nlsat6solver3imp7displayERSoRKNS_4atomERKN10polynomial16display_var_procE.exit: ; preds = %if.then.i, %if.else.i
  %retval.0.i = phi ptr [ %call2.i, %if.then.i ], [ %call3.i, %if.else.i ]
  ret ptr %retval.0.i
}